; Function Attrs: mustprogress uwtable
define noundef zeroext i1 @llama_save_session_file(ptr noundef %ctx, ptr noundef %path_session, ptr noundef %tokens, i64 noundef %n_token_count) local_unnamed_addr #2 personality ptr @__gxx_personality_v0 {
entry:
  %val.addr.i6 = alloca i32, align 4
  %val.addr.i4 = alloca i32, align 4
  %val.addr.i = alloca i32, align 4
  %file = alloca %struct.llama_file, align 8
  %data_ctx = alloca %struct.llama_data_file_context, align 8
  call void @_ZN10llama_fileC2EPKcS1_(ptr noundef nonnull align 8 dereferenceable(16) %file, ptr noundef %path_session, ptr noundef nonnull @.str.201)
  call void @llvm.lifetime.start.p0(i64 4, ptr nonnull %val.addr.i)
  store i32 1734833006, ptr %val.addr.i, align 4
  invoke void @_ZNK10llama_file9write_rawEPKvm(ptr noundef nonnull align 8 dereferenceable(16) %file, ptr noundef nonnull %val.addr.i, i64 noundef 4)
          to label %invoke.cont unwind label %lpad

invoke.cont:                                      ; preds = %entry
  call void @llvm.lifetime.end.p0(i64 4, ptr nonnull %val.addr.i)
  call void @llvm.lifetime.start.p0(i64 4, ptr nonnull %val.addr.i4)
  store i32 3, ptr %val.addr.i4, align 4
  invoke void @_ZNK10llama_file9write_rawEPKvm(ptr noundef nonnull align 8 dereferenceable(16) %file, ptr noundef nonnull %val.addr.i4, i64 noundef 4)
          to label %invoke.cont1 unwind label %lpad

invoke.cont1:                                     ; preds = %invoke.cont
  call void @llvm.lifetime.end.p0(i64 4, ptr nonnull %val.addr.i4)
  %model = getelementptr inbounds i8, ptr %ctx, i64 48
  %0 = load ptr, ptr %model, align 8
  %hparams = getelementptr inbounds i8, ptr %0, i64 48
  invoke void @_ZNK10llama_file9write_rawEPKvm(ptr noundef nonnull align 8 dereferenceable(16) %file, ptr noundef nonnull %hparams, i64 noundef 76)
          to label %invoke.cont2 unwind label %lpad

invoke.cont2:                                     ; preds = %invoke.cont1
  %conv = trunc i64 %n_token_count to i32
  call void @llvm.lifetime.start.p0(i64 4, ptr nonnull %val.addr.i6)
  store i32 %conv, ptr %val.addr.i6, align 4
  invoke void @_ZNK10llama_file9write_rawEPKvm(ptr noundef nonnull align 8 dereferenceable(16) %file, ptr noundef nonnull %val.addr.i6, i64 noundef 4)
          to label %invoke.cont3 unwind label %lpad

invoke.cont3:                                     ; preds = %invoke.cont2
  call void @llvm.lifetime.end.p0(i64 4, ptr nonnull %val.addr.i6)
  %mul = shl i64 %n_token_count, 2
  invoke void @_ZNK10llama_file9write_rawEPKvm(ptr noundef nonnull align 8 dereferenceable(16) %file, ptr noundef %tokens, i64 noundef %mul)
          to label %invoke.cont4 unwind label %lpad

invoke.cont4:                                     ; preds = %invoke.cont3
  store ptr getelementptr inbounds ({ [6 x ptr] }, ptr @_ZTV23llama_data_file_context, i64 0, i32 0, i64 2), ptr %data_ctx, align 8
  %file.i = getelementptr inbounds i8, ptr %data_ctx, i64 8
  store ptr %file, ptr %file.i, align 8
  %size_written.i = getelementptr inbounds i8, ptr %data_ctx, i64 16
  store i64 0, ptr %size_written.i, align 8
  invoke fastcc void @_ZL30llama_copy_state_data_internalP13llama_contextP18llama_data_context(ptr noundef nonnull %ctx, ptr noundef nonnull %data_ctx)
          to label %invoke.cont7 unwind label %lpad6

invoke.cont7:                                     ; preds = %invoke.cont4
  %1 = load ptr, ptr %file, align 8
  %tobool.not.i = icmp eq ptr %1, null
  br i1 %tobool.not.i, label %_ZN10llama_fileD2Ev.exit, label %if.then.i

if.then.i:                                        ; preds = %invoke.cont7
  %call.i = call i32 @fclose(ptr noundef nonnull %1)
  br label %_ZN10llama_fileD2Ev.exit

_ZN10llama_fileD2Ev.exit:                         ; preds = %invoke.cont7, %if.then.i
  ret i1 true

lpad:                                             ; preds = %invoke.cont2, %invoke.cont, %entry, %invoke.cont3, %invoke.cont1
  %2 = landingpad { ptr, i32 }
          cleanup
  br label %ehcleanup

lpad6:                                            ; preds = %invoke.cont4
  %3 = landingpad { ptr, i32 }
          cleanup
  br label %ehcleanup

ehcleanup:                                        ; preds = %lpad6, %lpad
  %.pn = phi { ptr, i32 } [ %3, %lpad6 ], [ %2, %lpad ]
  %4 = load ptr, ptr %file, align 8
  %tobool.not.i8 = icmp eq ptr %4, null
  br i1 %tobool.not.i8, label %_ZN10llama_fileD2Ev.exit11, label %if.then.i9

if.then.i9:                                       ; preds = %ehcleanup
  %call.i10 = call i32 @fclose(ptr noundef nonnull %4)
  br label %_ZN10llama_fileD2Ev.exit11

_ZN10llama_fileD2Ev.exit11:                       ; preds = %ehcleanup, %if.then.i9
  resume { ptr, i32 } %.pn
}